target datalayout = "e-m:e-p270:32:32-p271:32:32-p272:64:64-i64:64-i128:128-f80:128-n8:16:32:64-S128"
target triple = "x86_64-pc-linux-gnu"

%struct.JNINativeInterface_ = type { ptr, ptr, ptr, ptr, ptr, ptr, ptr, ptr, ptr, ptr, ptr, ptr, ptr, ptr, ptr, ptr, ptr, ptr, ptr, ptr, ptr, ptr, ptr, ptr, ptr, ptr, ptr, ptr, ptr, ptr, ptr, ptr, ptr, ptr, ptr, ptr, ptr, ptr, ptr, ptr, ptr, ptr, ptr, ptr, ptr, ptr, ptr, ptr, ptr, ptr, ptr, ptr, ptr, ptr, ptr, ptr, ptr, ptr, ptr, ptr, ptr, ptr, ptr, ptr, ptr, ptr, ptr, ptr, ptr, ptr, ptr, ptr, ptr, ptr, ptr, ptr, ptr, ptr, ptr, ptr, ptr, ptr, ptr, ptr, ptr, ptr, ptr, ptr, ptr, ptr, ptr, ptr, ptr, ptr, ptr, ptr, ptr, ptr, ptr, ptr, ptr, ptr, ptr, ptr, ptr, ptr, ptr, ptr, ptr, ptr, ptr, ptr, ptr, ptr, ptr, ptr, ptr, ptr, ptr, ptr, ptr, ptr, ptr, ptr, ptr, ptr, ptr, ptr, ptr, ptr, ptr, ptr, ptr, ptr, ptr, ptr, ptr, ptr, ptr, ptr, ptr, ptr, ptr, ptr, ptr, ptr, ptr, ptr, ptr, ptr, ptr, ptr, ptr, ptr, ptr, ptr, ptr, ptr, ptr, ptr, ptr, ptr, ptr, ptr, ptr, ptr, ptr, ptr, ptr, ptr, ptr, ptr, ptr, ptr, ptr, ptr, ptr, ptr, ptr, ptr, ptr, ptr, ptr, ptr, ptr, ptr, ptr, ptr, ptr, ptr, ptr, ptr, ptr, ptr, ptr, ptr, ptr, ptr, ptr, ptr, ptr, ptr, ptr, ptr, ptr, ptr, ptr, ptr, ptr, ptr, ptr, ptr, ptr, ptr, ptr, ptr, ptr, ptr, ptr, ptr, ptr, ptr, ptr, ptr, ptr, ptr, ptr, ptr, ptr, ptr, ptr, ptr, ptr, ptr, ptr }
%struct.GSS_FUNCTION_TABLE = type { ptr, ptr, ptr, ptr, ptr, ptr, ptr, ptr, ptr, ptr, ptr, ptr, ptr, ptr, ptr, ptr, ptr, ptr, ptr, ptr, ptr, ptr, ptr, ptr, ptr, ptr, ptr, ptr, ptr }

@JGSS_DEBUG = external global i32, align 4
@stderr = external global ptr, align 8
@ftab = external global ptr, align 8
@.str.25 = private unnamed_addr constant [40 x i8] c"[GSSLibStub:%d] [gss_inquire_cred] %lu\0A\00", align 1
@.str.26 = private unnamed_addr constant [19 x i8] c"[gss_inquire_cred]\00", align 1
@.str.29 = private unnamed_addr constant [46 x i8] c"[GSSLibStub:%d] [GSSLibStub_getCredTime] %ld\0A\00", align 1

; Function Attrs: nounwind uwtable
define hidden void @inquireCred(ptr noundef %0, ptr noundef %1, ptr noundef %2, i32 noundef %3, ptr noundef %4) #0 {
  %6 = alloca ptr, align 8
  %7 = alloca ptr, align 8
  %8 = alloca ptr, align 8
  %9 = alloca i32, align 4
  %10 = alloca ptr, align 8
  %11 = alloca i32, align 4
  %12 = alloca i32, align 4
  %13 = alloca i32, align 4
  %14 = alloca ptr, align 8
  store ptr %0, ptr %6, align 8
  store ptr %1, ptr %7, align 8
  store ptr %2, ptr %8, align 8
  store i32 %3, ptr %9, align 4
  store ptr %4, ptr %10, align 8
  store i32 0, ptr %11, align 4
  store i32 0, ptr %12, align 4
  %15 = load ptr, ptr %8, align 8
  store ptr %15, ptr %14, align 8
  %16 = load i32, ptr @JGSS_DEBUG, align 4
  %17 = icmp ne i32 %16, 0
  br i1 %17, label %18, label %25

18:                                               ; preds = %5
  %19 = load ptr, ptr @stderr, align 8
  %20 = load ptr, ptr %8, align 8
  %21 = ptrtoint ptr %20 to i64
  %22 = call i32 (ptr, ptr, ...) @fprintf(ptr noundef %19, ptr noundef @.str.25, i32 noundef 698, i64 noundef %21) #5
  %23 = load ptr, ptr @stderr, align 8
  %24 = call i32 @fflush(ptr noundef %23)
  br label %25

25:                                               ; preds = %18, %5
  %26 = load i32, ptr %9, align 4
  %27 = icmp eq i32 %26, 10
  br i1 %27, label %28, label %35

28:                                               ; preds = %25
  %29 = load ptr, ptr @ftab, align 8
  %30 = getelementptr inbounds %struct.GSS_FUNCTION_TABLE, ptr %29, i32 0, i32 9
  %31 = load ptr, ptr %30, align 8
  %32 = load ptr, ptr %14, align 8
  %33 = load ptr, ptr %10, align 8
  %34 = call i32 %31(ptr noundef %11, ptr noundef %32, ptr noundef %33, ptr noundef null, ptr noundef null, ptr noundef null)
  store i32 %34, ptr %12, align 4
  br label %57

35:                                               ; preds = %25
  %36 = load i32, ptr %9, align 4
  %37 = icmp eq i32 %36, 11
  br i1 %37, label %38, label %45

38:                                               ; preds = %35
  %39 = load ptr, ptr @ftab, align 8
  %40 = getelementptr inbounds %struct.GSS_FUNCTION_TABLE, ptr %39, i32 0, i32 9
  %41 = load ptr, ptr %40, align 8
  %42 = load ptr, ptr %14, align 8
  %43 = load ptr, ptr %10, align 8
  %44 = call i32 %41(ptr noundef %11, ptr noundef %42, ptr noundef null, ptr noundef %43, ptr noundef null, ptr noundef null)
  store i32 %44, ptr %12, align 4
  br label %56

45:                                               ; preds = %35
  %46 = load i32, ptr %9, align 4
  %47 = icmp eq i32 %46, 12
  br i1 %47, label %48, label %55

48:                                               ; preds = %45
  %49 = load ptr, ptr @ftab, align 8
  %50 = getelementptr inbounds %struct.GSS_FUNCTION_TABLE, ptr %49, i32 0, i32 9
  %51 = load ptr, ptr %50, align 8
  %52 = load ptr, ptr %14, align 8
  %53 = load ptr, ptr %10, align 8
  %54 = call i32 %51(ptr noundef %11, ptr noundef %52, ptr noundef null, ptr noundef null, ptr noundef %53, ptr noundef null)
  store i32 %54, ptr %12, align 4
  br label %55

55:                                               ; preds = %48, %45
  br label %56

56:                                               ; preds = %55, %38
  br label %57

57:                                               ; preds = %56, %28
  %58 = load i32, ptr %12, align 4
  %59 = and i32 %58, 16711680
  store i32 %59, ptr %13, align 4
  %60 = load i32, ptr %13, align 4
  %61 = icmp eq i32 %60, 720896
  br i1 %61, label %62, label %68

62:                                               ; preds = %57
  %63 = load i32, ptr %12, align 4
  %64 = and i32 %63, -16777216
  %65 = load i32, ptr %12, align 4
  %66 = and i32 %65, 65535
  %67 = or i32 %64, %66
  store i32 %67, ptr %12, align 4
  br label %79

68:                                               ; preds = %57
  %69 = load i32, ptr %13, align 4
  %70 = icmp eq i32 %69, 458752
  br i1 %70, label %71, label %78

71:                                               ; preds = %68
  %72 = load i32, ptr %12, align 4
  %73 = and i32 %72, -16777216
  %74 = or i32 %73, 65536
  %75 = load i32, ptr %12, align 4
  %76 = and i32 %75, 65535
  %77 = or i32 %74, %76
  store i32 %77, ptr %12, align 4
  br label %78

78:                                               ; preds = %71, %68
  br label %79

79:                                               ; preds = %78, %62
  %80 = load ptr, ptr %6, align 8
  %81 = load ptr, ptr %7, align 8
  %82 = load i32, ptr %12, align 4
  %83 = load i32, ptr %11, align 4
  call void @checkStatus(ptr noundef %80, ptr noundef %81, i32 noundef %82, i32 noundef %83, ptr noundef @.str.26)
  ret void
}

; Function Attrs: nounwind uwtable
define i32 @Java_sun_security_jgss_wrapper_GSSLibStub_getCredTime(ptr noundef %0, ptr noundef %1, i64 noundef %2) #0 {
  %4 = alloca i32, align 4
  %5 = alloca ptr, align 8
  %6 = alloca ptr, align 8
  %7 = alloca i64, align 8
  %8 = alloca ptr, align 8
  %9 = alloca i32, align 4
  store ptr %0, ptr %5, align 8
  store ptr %1, ptr %6, align 8
  store i64 %2, ptr %7, align 8
  %10 = load i64, ptr %7, align 8
  %11 = inttoptr i64 %10 to ptr
  store ptr %11, ptr %8, align 8
  %12 = load i32, ptr @JGSS_DEBUG, align 4
  %13 = icmp ne i32 %12, 0
  br i1 %13, label %14, label %20

14:                                               ; preds = %3
  %15 = load ptr, ptr @stderr, align 8
  %16 = load i64, ptr %7, align 8
  %17 = call i32 (ptr, ptr, ...) @fprintf(ptr noundef %15, ptr noundef @.str.29, i32 noundef 766, i64 noundef %16) #5
  %18 = load ptr, ptr @stderr, align 8
  %19 = call i32 @fflush(ptr noundef %18)
  br label %20

20:                                               ; preds = %14, %3
  store i32 0, ptr %9, align 4
  %21 = load ptr, ptr %5, align 8
  %22 = load ptr, ptr %6, align 8
  %23 = load ptr, ptr %8, align 8
  call void @inquireCred(ptr noundef %21, ptr noundef %22, ptr noundef %23, i32 noundef 11, ptr noundef %9)
  %24 = load ptr, ptr %5, align 8
  %25 = load ptr, ptr %24, align 8
  %26 = getelementptr inbounds %struct.JNINativeInterface_, ptr %25, i32 0, i32 228
  %27 = load ptr, ptr %26, align 8
  %28 = load ptr, ptr %5, align 8
  %29 = call zeroext i8 %27(ptr noundef %28)
  %30 = icmp ne i8 %29, 0
  br i1 %30, label %31, label %32

31:                                               ; preds = %20
  store i32 0, ptr %4, align 4
  br label %35

32:                                               ; preds = %20
  %33 = load i32, ptr %9, align 4
  %34 = call i32 @getJavaTime(i32 noundef %33)
  store i32 %34, ptr %4, align 4
  br label %35

35:                                               ; preds = %32, %31
  %36 = load i32, ptr %4, align 4
  ret i32 %36
}