; Function Attrs: nounwind uwtable
define i32 @Java_sun_security_jgss_wrapper_GSSLibStub_getCredTime(ptr noundef %0, ptr noundef %1, i64 noundef %2) local_unnamed_addr #0 {
  %4 = alloca i32, align 4
  %5 = alloca i32, align 4
  %6 = inttoptr i64 %2 to ptr
  %7 = load i32, ptr @JGSS_DEBUG, align 4
  %.not = icmp eq i32 %7, 0
  br i1 %.not, label %.thread, label %8

.thread:                                          ; preds = %3
  store i32 0, ptr %5, align 4
  call void @llvm.lifetime.start.p0(i64 4, ptr nonnull %4)
  store i32 0, ptr %4, align 4
  br label %18

8:                                                ; preds = %3
  %9 = load ptr, ptr @stderr, align 8
  %10 = tail call i32 (ptr, ptr, ...) @fprintf(ptr noundef %9, ptr noundef nonnull @.str.29, i32 noundef 766, i64 noundef %2) #8
  %11 = load ptr, ptr @stderr, align 8
  %12 = tail call i32 @fflush(ptr noundef %11)
  %.pr = load i32, ptr @JGSS_DEBUG, align 4
  store i32 0, ptr %5, align 4
  call void @llvm.lifetime.start.p0(i64 4, ptr nonnull %4)
  store i32 0, ptr %4, align 4
  %.not.i = icmp eq i32 %.pr, 0
  br i1 %.not.i, label %18, label %13

13:                                               ; preds = %8
  %14 = load ptr, ptr @stderr, align 8
  %15 = tail call i32 (ptr, ptr, ...) @fprintf(ptr noundef %14, ptr noundef nonnull @.str.25, i32 noundef 698, i64 noundef %2) #8
  %16 = load ptr, ptr @stderr, align 8
  %17 = tail call i32 @fflush(ptr noundef %16)
  br label %18

18:                                               ; preds = %.thread, %13, %8
  %19 = load ptr, ptr @ftab, align 8
  %20 = getelementptr inbounds i8, ptr %19, i64 72
  %21 = load ptr, ptr %20, align 8
  %22 = call i32 %21(ptr noundef nonnull %4, ptr noundef %6, ptr noundef null, ptr noundef nonnull %5, ptr noundef null, ptr noundef null) #9
  %23 = and i32 %22, 16711680
  switch i32 %23, label %inquireCred.exit [
    i32 720896, label %24
    i32 458752, label %26
  ]

24:                                               ; preds = %18
  %25 = and i32 %22, -16711681
  br label %inquireCred.exit

26:                                               ; preds = %18
  %27 = and i32 %22, -16646145
  br label %inquireCred.exit

inquireCred.exit:                                 ; preds = %18, %24, %26
  %.1.i = phi i32 [ %25, %24 ], [ %27, %26 ], [ %22, %18 ]
  %28 = load i32, ptr %4, align 4
  call void @checkStatus(ptr noundef %0, ptr noundef %1, i32 noundef %.1.i, i32 noundef %28, ptr noundef nonnull @.str.26) #9
  call void @llvm.lifetime.end.p0(i64 4, ptr nonnull %4)
  %29 = load ptr, ptr %0, align 8
  %30 = getelementptr inbounds i8, ptr %29, i64 1824
  %31 = load ptr, ptr %30, align 8
  %32 = call zeroext i8 %31(ptr noundef nonnull %0) #9
  %.not7 = icmp eq i8 %32, 0
  br i1 %.not7, label %33, label %36

33:                                               ; preds = %inquireCred.exit
  %34 = load i32, ptr %5, align 4
  %35 = call i32 @getJavaTime(i32 noundef %34) #9
  br label %36

36:                                               ; preds = %inquireCred.exit, %33
  %.0 = phi i32 [ %35, %33 ], [ 0, %inquireCred.exit ]
  ret i32 %.0
}